Certificate:
    Data:
        Version: 3 (0x2)
        Serial Number:
            95:40:30:12:f5:59:0a:ad
    Signature Algorithm: sha1WithRSAEncryption
        Issuer: C=CZ, L=Roznov, CN=board
        Validity
            Not Before: Jun 23 13:41:43 2014 GMT
            Not After : Jun 20 13:41:43 2024 GMT
        Subject: C=CZ, L=Roznov, CN=board
        Subject Public Key Info:
            Public Key Algorithm: rsaEncryption
                Public-Key: (2048 bit)
                Modulus:
                    00:bb:80:f2:71:1c:a7:a9:ea:96:19:fe:ad:0c:49:
                    1b:13:09:92:d1:b3:5f:0f:48:90:84:3e:2c:76:2c:
                    20:27:74:0d:68:de:d9:cd:23:32:3c:11:12:93:e6:
                    8f:c6:b2:d8:2d:59:dd:52:c7:60:37:88:74:0d:73:
                    c1:31:ad:6e:e0:75:7d:4c:b2:2e:b0:cd:7b:10:9d:
                    b8:05:04:de:49:13:81:1a:e1:b9:92:c5:31:3e:12:
                    db:2b:bf:ac:5a:38:fc:a7:1e:3d:4c:94:f1:b4:7c:
                    50:b6:91:67:73:5f:55:1b:9b:a4:38:e3:9d:3a:5a:
                    f6:4d:13:de:c2:43:46:3b:bb:00:63:0d:f4:57:96:
                    4b:af:00:66:0b:7c:68:33:99:fb:d0:f7:1b:e4:0d:
                    5e:a5:65:ab:da:ca:94:66:84:96:4c:2c:8d:88:1f:
                    15:e5:54:bd:c7:b1:2e:41:5c:ba:ce:c9:c7:88:91:
                    d0:8d:98:29:53:cc:75:f1:fe:ec:14:aa:c1:30:37:
                    b2:23:ef:ff:9a:6e:a1:96:93:fa:77:d8:7c:99:98:
                    3a:68:1f:d2:21:8a:b3:a9:7b:06:4d:5a:e0:e9:20:
                    ab:ca:c0:21:43:6f:c3:28:25:ca:b1:1d:b8:22:38:
                    e9:c8:aa:ed:56:e6:cc:4c:d7:c9:cb:05:6d:5d:fe:
                    27:d1
                Exponent: 65537 (0x10001)
        X509v3 extensions:
            X509v3 Subject Key Identifier: 
                84:A6:2B:B2:50:9F:8E:05:68:67:00:22:AE:7A:AD:93:AF:75:4D:A7
            X509v3 Authority Key Identifier: 
                keyid:84:A6:2B:B2:50:9F:8E:05:68:67:00:22:AE:7A:AD:93:AF:75:4D:A7

            X509v3 Basic Constraints: 
                CA:TRUE
    Signature Algorithm: sha1WithRSAEncryption
         7b:5c:3f:20:ff:e9:f9:ba:17:4d:b8:d8:02:81:b4:e0:86:be:
         dc:4b:9c:88:c1:e1:7f:07:a4:d2:e6:69:9c:05:97:6c:78:a9:
         5f:04:e3:44:28:4c:45:b1:de:5a:34:67:a9:50:8b:f7:06:8c:
         53:77:cf:2d:f9:d6:0c:f2:e9:a3:4c:21:d1:7a:67:c7:8f:ab:
         75:ae:96:02:b9:4d:24:cc:e4:98:a5:75:51:d5:7d:1d:07:87:
         9a:03:85:13:91:bc:09:c1:0f:57:28:41:67:7c:b6:73:5c:52:
         16:8e:9f:a0:05:67:29:50:3d:ec:15:92:2b:6e:6d:cd:08:93:
         90:09:ba:44:81:61:16:1b:d6:62:6c:ba:cf:fb:6e:cb:1f:59:
         bb:3a:85:ef:33:a2:47:4e:0d:5f:6f:bb:aa:4f:70:29:ae:a8:
         f1:2e:15:b9:fb:26:3c:d0:92:e9:7e:4a:a1:7d:70:5f:89:b5:
         35:0a:ad:0d:40:bd:a4:d8:ea:81:f5:8c:6a:aa:5e:27:ca:f0:
         9c:bb:4c:84:c1:37:b8:c5:c4:1f:85:7c:8a:9e:61:14:3c:26:
         d2:4e:22:1d:4b:42:5f:04:fe:91:fc:42:82:41:57:ba:d1:40:
         63:ff:78:f9:ab:05:7d:ee:84:fa:e3:c4:3d:44:d5:3c:ae:ff:
         5c:08:df:97
-----BEGIN CERTIFICATE-----
MIIDLzCCAhegAwIBAgIJAJVAMBL1WQqtMA0GCSqGSIb3DQEBBQUAMC4xCzAJBgNV
BAYTAkNaMQ8wDQYDVQQHDAZSb3pub3YxDjAMBgNVBAMMBWJvYXJkMB4XDTE0MDYy
MzEzNDE0M1oXDTI0MDYyMDEzNDE0M1owLjELMAkGA1UEBhMCQ1oxDzANBgNVBAcM
BlJvem5vdjEOMAwGA1UEAwwFYm9hcmQwggEiMA0GCSqGSIb3DQEBAQUAA4IBDwAw
ggEKAoIBAQC7gPJxHKep6pYZ/q0MSRsTCZLRs18PSJCEPix2LCAndA1o3tnNIzI8
ERKT5o/GstgtWd1Sx2A3iHQNc8ExrW7gdX1Msi6wzXsQnbgFBN5JE4Ea4bmSxTE+
Etsrv6xaOPynHj1MlPG0fFC2kWdzX1Ubm6Q44506WvZNE97CQ0Y7uwBjDfRXlkuv
AGYLfGgzmfvQ9xvkDV6lZavaypRmhJZMLI2IHxXlVL3HsS5BXLrOyceIkdCNmClT
zHXx/uwUqsEwN7Ij7/+abqGWk/p32HyZmDpoH9IhirOpewZNWuDpIKvKwCFDb8Mo
JcqxHbgiOOnIqu1W5sxM18nLBW1d/ifRAgMBAAGjUDBOMB0GA1UdDgQWBBSEpiuy
UJ+OBWhnACKueq2Tr3VNpzAfBgNVHSMEGDAWgBSEpiuyUJ+OBWhnACKueq2Tr3VN
pzAMBgNVHRMEBTADAQH/MA0GCSqGSIb3DQEBBQUAA4IBAQB7XD8g/+n5uhdNuNgC
gbTghr7cS5yIweF/B6TS5mmcBZdseKlfBONEKExFsd5aNGepUIv3BoxTd88t+dYM
8umjTCHRemfHj6t1rpYCuU0kzOSYpXVR1X0dB4eaA4UTkbwJwQ9XKEFnfLZzXFIW
jp+gBWcpUD3sFZIrbm3NCJOQCbpEgWEWG9ZibLrP+27LH1m7OoXvM6JHTg1fb7uq
T3AprqjxLhW5+yY80JLpfkqhfXBfibU1Cq0NQL2k2OqB9Yxqql4nyvCcu0yEwTe4
xcQfhXyKnmEUPCbSTiIdS0JfBP6R/EKCQVe60UBj/3j5qwV97oT648Q9RNU8rv9c
CN+X
-----END CERTIFICATE-----
